; Function Attrs: mustprogress uwtable
define void @_ZN7rocksdb14BuildDBOptionsERKNS_18ImmutableDBOptionsERKNS_16MutableDBOptionsE(ptr dead_on_unwind noalias nonnull writable sret(%"struct.rocksdb::DBOptions") align 8 %0, ptr noundef nonnull align 8 dereferenceable(600) %1, ptr noundef nonnull align 8 dereferenceable(144) %2) local_unnamed_addr #1 personality ptr @__gxx_personality_v0 {
  tail call void @_ZN7rocksdb9DBOptionsC1Ev(ptr noundef nonnull align 8 dereferenceable(706) %0)
  invoke void @_ZN7rocksdb14BuildDBOptionsERKNS_18ImmutableDBOptionsERKNS_16MutableDBOptionsERNS_9DBOptionsE(ptr noundef nonnull align 8 dereferenceable(600) %1, ptr noundef nonnull align 8 dereferenceable(144) %2, ptr noundef nonnull align 8 dereferenceable(706) %0)
          to label %6 unwind label %4

4:                                                ; preds = %3
  %5 = landingpad { ptr, i32 }
          cleanup
  tail call void @_ZN7rocksdb9DBOptionsD2Ev(ptr noundef nonnull align 8 dereferenceable(706) %0) #27
  resume { ptr, i32 } %5

6:                                                ; preds = %3
  ret void
}